target datalayout = "e-m:e-p270:32:32-p271:32:32-p272:64:64-i64:64-i128:128-f80:128-n8:16:32:64-S128"
target triple = "x86_64-pc-linux-gnu"

@hf_gsm_a_rr_multiband_reporting = internal global i32 0, align 4
@hf_gsm_a_rr_serving_band_reporting = internal global i32 0, align 4
@hf_gsm_a_rr_report_type = internal global i32 0, align 4
@hf_gsm_a_rr_reporting_rate = internal global i32 0, align 4
@hf_gsm_a_rr_invalid_bsic_reporting = internal global i32 0, align 4
@hf_gsm_a_rr_scale_ord = internal global i32 0, align 4
@hf_gsm_a_rr_900_reporting_offset = internal global i32 0, align 4
@hf_gsm_a_rr_900_reporting_threshold = internal global i32 0, align 4
@hf_gsm_a_rr_1800_reporting_offset = internal global i32 0, align 4
@hf_gsm_a_rr_1800_reporting_threshold = internal global i32 0, align 4
@hf_gsm_a_rr_400_reporting_offset = internal global i32 0, align 4
@hf_gsm_a_rr_400_reporting_threshold = internal global i32 0, align 4
@hf_gsm_a_rr_1900_reporting_offset = internal global i32 0, align 4
@hf_gsm_a_rr_1900_reporting_threshold = internal global i32 0, align 4
@hf_gsm_a_rr_850_reporting_offset = internal global i32 0, align 4
@hf_gsm_a_rr_850_reporting_threshold = internal global i32 0, align 4
@hf_gsm_a_rr_multiband_reporting_present = internal global i32 0, align 4
@hf_gsm_a_rr_serving_reporting_present = internal global i32 0, align 4
@hf_gsm_a_rr_900_reporting_present = internal global i32 0, align 4
@hf_gsm_a_rr_1800_reporting_present = internal global i32 0, align 4
@hf_gsm_a_rr_400_reporting_present = internal global i32 0, align 4
@hf_gsm_a_rr_1900_reporting_present = internal global i32 0, align 4
@hf_gsm_a_rr_850_reporting_present = internal global i32 0, align 4
@ett_gsm_rr_rest_octets_elem = hidden global [61 x i32] zeroinitializer, align 16

; Function Attrs: null_pointer_is_valid sspstrong uwtable
define internal zeroext i1 @gsm_rr_csn_flag(ptr noundef %0, ptr noundef %1, i32 noundef %2, i32 noundef %3) #1 {
  %5 = alloca ptr, align 8
  %6 = alloca ptr, align 8
  %7 = alloca i32, align 4
  %8 = alloca i32, align 4
  %9 = alloca i8, align 1
  %10 = alloca i8, align 1
  store ptr %0, ptr %5, align 8
  store ptr %1, ptr %6, align 8
  store i32 %2, ptr %7, align 4
  store i32 %3, ptr %8, align 4
  call void @llvm.lifetime.start.p0(i64 1, ptr %9) #11
  %11 = load i32, ptr %7, align 4
  %12 = srem i32 %11, 8
  %13 = ashr i32 128, %12
  %14 = trunc i32 %13 to i8
  store i8 %14, ptr %9, align 1
  call void @llvm.lifetime.start.p0(i64 1, ptr %10) #11
  %15 = load ptr, ptr %5, align 8
  %16 = load i32, ptr %7, align 4
  %17 = ashr i32 %16, 3
  %18 = call zeroext i8 @tvb_get_uint8(ptr noundef %15, i32 noundef %17)
  store i8 %18, ptr %10, align 1
  %19 = load ptr, ptr %6, align 8
  %20 = load i32, ptr %8, align 4
  %21 = load ptr, ptr %5, align 8
  %22 = load i32, ptr %7, align 4
  %23 = call ptr @proto_tree_add_bits_item(ptr noundef %19, i32 noundef %20, ptr noundef %21, i32 noundef %22, i32 noundef 1, i32 noundef 0)
  %24 = load i8, ptr %10, align 1
  %25 = zext i8 %24 to i32
  %26 = load i8, ptr %9, align 1
  %27 = zext i8 %26 to i32
  %28 = and i32 %25, %27
  %29 = icmp ne i32 %28, 0
  call void @llvm.lifetime.end.p0(i64 1, ptr %10) #11
  call void @llvm.lifetime.end.p0(i64 1, ptr %9) #11
  ret i1 %29
}

; Function Attrs: null_pointer_is_valid sspstrong uwtable
define internal i32 @de_rr_meas_param_desc(ptr noundef %0, ptr noundef %1, i32 noundef %2, i32 noundef %3) #1 {
  %5 = alloca ptr, align 8
  %6 = alloca ptr, align 8
  %7 = alloca i32, align 4
  %8 = alloca i32, align 4
  %9 = alloca ptr, align 8
  %10 = alloca ptr, align 8
  %11 = alloca i32, align 4
  store ptr %0, ptr %5, align 8
  store ptr %1, ptr %6, align 8
  store i32 %2, ptr %7, align 4
  store i32 %3, ptr %8, align 4
  call void @llvm.lifetime.start.p0(i64 8, ptr %9) #11
  call void @llvm.lifetime.start.p0(i64 8, ptr %10) #11
  call void @llvm.lifetime.start.p0(i64 4, ptr %11) #11
  %12 = load i32, ptr %7, align 4
  store i32 %12, ptr %11, align 4
  %13 = load ptr, ptr %6, align 8
  %14 = load ptr, ptr %5, align 8
  %15 = load i32, ptr %11, align 4
  %16 = ashr i32 %15, 3
  %17 = load i32, ptr %8, align 4
  %18 = zext i32 %17 to i64
  %19 = getelementptr [61 x i32], ptr @ett_gsm_rr_rest_octets_elem, i64 0, i64 %18
  %20 = load i32, ptr %19, align 4
  %21 = load i32, ptr %8, align 4
  %22 = zext i32 %21 to i64
  %23 = getelementptr [61 x ptr], ptr @gsm_rr_rest_octets_elem_strings, i64 0, i64 %22
  %24 = load ptr, ptr %23, align 8
  %25 = call ptr @proto_tree_add_subtree(ptr noundef %13, ptr noundef %14, i32 noundef %16, i32 noundef -1, i32 noundef %20, ptr noundef %10, ptr noundef %24)
  store ptr %25, ptr %9, align 8
  %26 = load i32, ptr %8, align 4
  %27 = icmp eq i32 %26, 8
  br i1 %27, label %28, label %50

28:                                               ; preds = %4
  %29 = load ptr, ptr %9, align 8
  %30 = load i32, ptr @hf_gsm_a_rr_report_type, align 4
  %31 = load ptr, ptr %5, align 8
  %32 = load i32, ptr %11, align 4
  %33 = call ptr @proto_tree_add_bits_item(ptr noundef %29, i32 noundef %30, ptr noundef %31, i32 noundef %32, i32 noundef 1, i32 noundef 0)
  %34 = load i32, ptr %11, align 4
  %35 = add i32 %34, 1
  store i32 %35, ptr %11, align 4
  %36 = load ptr, ptr %9, align 8
  %37 = load i32, ptr @hf_gsm_a_rr_reporting_rate, align 4
  %38 = load ptr, ptr %5, align 8
  %39 = load i32, ptr %11, align 4
  %40 = call ptr @proto_tree_add_bits_item(ptr noundef %36, i32 noundef %37, ptr noundef %38, i32 noundef %39, i32 noundef 1, i32 noundef 0)
  %41 = load i32, ptr %11, align 4
  %42 = add i32 %41, 1
  store i32 %42, ptr %11, align 4
  %43 = load ptr, ptr %9, align 8
  %44 = load i32, ptr @hf_gsm_a_rr_invalid_bsic_reporting, align 4
  %45 = load ptr, ptr %5, align 8
  %46 = load i32, ptr %11, align 4
  %47 = call ptr @proto_tree_add_bits_item(ptr noundef %43, i32 noundef %44, ptr noundef %45, i32 noundef %46, i32 noundef 1, i32 noundef 0)
  %48 = load i32, ptr %11, align 4
  %49 = add i32 %48, 1
  store i32 %49, ptr %11, align 4
  br label %50

50:                                               ; preds = %28, %4
  %51 = load ptr, ptr %5, align 8
  %52 = load ptr, ptr %9, align 8
  %53 = load i32, ptr %11, align 4
  %54 = add i32 %53, 1
  store i32 %54, ptr %11, align 4
  %55 = load i32, ptr @hf_gsm_a_rr_multiband_reporting_present, align 4
  %56 = call zeroext i1 @gsm_rr_csn_flag(ptr noundef %51, ptr noundef %52, i32 noundef %53, i32 noundef %55)
  br i1 %56, label %57, label %65

57:                                               ; preds = %50
  %58 = load ptr, ptr %9, align 8
  %59 = load i32, ptr @hf_gsm_a_rr_multiband_reporting, align 4
  %60 = load ptr, ptr %5, align 8
  %61 = load i32, ptr %11, align 4
  %62 = call ptr @proto_tree_add_bits_item(ptr noundef %58, i32 noundef %59, ptr noundef %60, i32 noundef %61, i32 noundef 2, i32 noundef 0)
  %63 = load i32, ptr %11, align 4
  %64 = add i32 %63, 2
  store i32 %64, ptr %11, align 4
  br label %65

65:                                               ; preds = %57, %50
  %66 = load ptr, ptr %5, align 8
  %67 = load ptr, ptr %9, align 8
  %68 = load i32, ptr %11, align 4
  %69 = add i32 %68, 1
  store i32 %69, ptr %11, align 4
  %70 = load i32, ptr @hf_gsm_a_rr_serving_reporting_present, align 4
  %71 = call zeroext i1 @gsm_rr_csn_flag(ptr noundef %66, ptr noundef %67, i32 noundef %68, i32 noundef %70)
  br i1 %71, label %72, label %80

72:                                               ; preds = %65
  %73 = load ptr, ptr %9, align 8
  %74 = load i32, ptr @hf_gsm_a_rr_serving_band_reporting, align 4
  %75 = load ptr, ptr %5, align 8
  %76 = load i32, ptr %11, align 4
  %77 = call ptr @proto_tree_add_bits_item(ptr noundef %73, i32 noundef %74, ptr noundef %75, i32 noundef %76, i32 noundef 2, i32 noundef 0)
  %78 = load i32, ptr %11, align 4
  %79 = add i32 %78, 2
  store i32 %79, ptr %11, align 4
  br label %80

80:                                               ; preds = %72, %65
  %81 = load ptr, ptr %9, align 8
  %82 = load i32, ptr @hf_gsm_a_rr_scale_ord, align 4
  %83 = load ptr, ptr %5, align 8
  %84 = load i32, ptr %11, align 4
  %85 = call ptr @proto_tree_add_bits_item(ptr noundef %81, i32 noundef %82, ptr noundef %83, i32 noundef %84, i32 noundef 2, i32 noundef 0)
  %86 = load i32, ptr %11, align 4
  %87 = add i32 %86, 2
  store i32 %87, ptr %11, align 4
  %88 = load ptr, ptr %5, align 8
  %89 = load ptr, ptr %9, align 8
  %90 = load i32, ptr %11, align 4
  %91 = add i32 %90, 1
  store i32 %91, ptr %11, align 4
  %92 = load i32, ptr @hf_gsm_a_rr_900_reporting_present, align 4
  %93 = call zeroext i1 @gsm_rr_csn_flag(ptr noundef %88, ptr noundef %89, i32 noundef %90, i32 noundef %92)
  br i1 %93, label %94, label %109

94:                                               ; preds = %80
  %95 = load ptr, ptr %9, align 8
  %96 = load i32, ptr @hf_gsm_a_rr_900_reporting_offset, align 4
  %97 = load ptr, ptr %5, align 8
  %98 = load i32, ptr %11, align 4
  %99 = call ptr @proto_tree_add_bits_item(ptr noundef %95, i32 noundef %96, ptr noundef %97, i32 noundef %98, i32 noundef 3, i32 noundef 0)
  %100 = load i32, ptr %11, align 4
  %101 = add i32 %100, 3
  store i32 %101, ptr %11, align 4
  %102 = load ptr, ptr %9, align 8
  %103 = load i32, ptr @hf_gsm_a_rr_900_reporting_threshold, align 4
  %104 = load ptr, ptr %5, align 8
  %105 = load i32, ptr %11, align 4
  %106 = call ptr @proto_tree_add_bits_item(ptr noundef %102, i32 noundef %103, ptr noundef %104, i32 noundef %105, i32 noundef 3, i32 noundef 0)
  %107 = load i32, ptr %11, align 4
  %108 = add i32 %107, 3
  store i32 %108, ptr %11, align 4
  br label %109

109:                                              ; preds = %94, %80
  %110 = load ptr, ptr %5, align 8
  %111 = load ptr, ptr %9, align 8
  %112 = load i32, ptr %11, align 4
  %113 = add i32 %112, 1
  store i32 %113, ptr %11, align 4
  %114 = load i32, ptr @hf_gsm_a_rr_1800_reporting_present, align 4
  %115 = call zeroext i1 @gsm_rr_csn_flag(ptr noundef %110, ptr noundef %111, i32 noundef %112, i32 noundef %114)
  br i1 %115, label %116, label %131

116:                                              ; preds = %109
  %117 = load ptr, ptr %9, align 8
  %118 = load i32, ptr @hf_gsm_a_rr_1800_reporting_offset, align 4
  %119 = load ptr, ptr %5, align 8
  %120 = load i32, ptr %11, align 4
  %121 = call ptr @proto_tree_add_bits_item(ptr noundef %117, i32 noundef %118, ptr noundef %119, i32 noundef %120, i32 noundef 3, i32 noundef 0)
  %122 = load i32, ptr %11, align 4
  %123 = add i32 %122, 3
  store i32 %123, ptr %11, align 4
  %124 = load ptr, ptr %9, align 8
  %125 = load i32, ptr @hf_gsm_a_rr_1800_reporting_threshold, align 4
  %126 = load ptr, ptr %5, align 8
  %127 = load i32, ptr %11, align 4
  %128 = call ptr @proto_tree_add_bits_item(ptr noundef %124, i32 noundef %125, ptr noundef %126, i32 noundef %127, i32 noundef 3, i32 noundef 0)
  %129 = load i32, ptr %11, align 4
  %130 = add i32 %129, 3
  store i32 %130, ptr %11, align 4
  br label %131

131:                                              ; preds = %116, %109
  %132 = load ptr, ptr %5, align 8
  %133 = load ptr, ptr %9, align 8
  %134 = load i32, ptr %11, align 4
  %135 = add i32 %134, 1
  store i32 %135, ptr %11, align 4
  %136 = load i32, ptr @hf_gsm_a_rr_400_reporting_present, align 4
  %137 = call zeroext i1 @gsm_rr_csn_flag(ptr noundef %132, ptr noundef %133, i32 noundef %134, i32 noundef %136)
  br i1 %137, label %138, label %153

138:                                              ; preds = %131
  %139 = load ptr, ptr %9, align 8
  %140 = load i32, ptr @hf_gsm_a_rr_400_reporting_offset, align 4
  %141 = load ptr, ptr %5, align 8
  %142 = load i32, ptr %11, align 4
  %143 = call ptr @proto_tree_add_bits_item(ptr noundef %139, i32 noundef %140, ptr noundef %141, i32 noundef %142, i32 noundef 3, i32 noundef 0)
  %144 = load i32, ptr %11, align 4
  %145 = add i32 %144, 3
  store i32 %145, ptr %11, align 4
  %146 = load ptr, ptr %9, align 8
  %147 = load i32, ptr @hf_gsm_a_rr_400_reporting_threshold, align 4
  %148 = load ptr, ptr %5, align 8
  %149 = load i32, ptr %11, align 4
  %150 = call ptr @proto_tree_add_bits_item(ptr noundef %146, i32 noundef %147, ptr noundef %148, i32 noundef %149, i32 noundef 3, i32 noundef 0)
  %151 = load i32, ptr %11, align 4
  %152 = add i32 %151, 3
  store i32 %152, ptr %11, align 4
  br label %153

153:                                              ; preds = %138, %131
  %154 = load ptr, ptr %5, align 8
  %155 = load ptr, ptr %9, align 8
  %156 = load i32, ptr %11, align 4
  %157 = add i32 %156, 1
  store i32 %157, ptr %11, align 4
  %158 = load i32, ptr @hf_gsm_a_rr_1900_reporting_present, align 4
  %159 = call zeroext i1 @gsm_rr_csn_flag(ptr noundef %154, ptr noundef %155, i32 noundef %156, i32 noundef %158)
  br i1 %159, label %160, label %175

160:                                              ; preds = %153
  %161 = load ptr, ptr %9, align 8
  %162 = load i32, ptr @hf_gsm_a_rr_1900_reporting_offset, align 4
  %163 = load ptr, ptr %5, align 8
  %164 = load i32, ptr %11, align 4
  %165 = call ptr @proto_tree_add_bits_item(ptr noundef %161, i32 noundef %162, ptr noundef %163, i32 noundef %164, i32 noundef 3, i32 noundef 0)
  %166 = load i32, ptr %11, align 4
  %167 = add i32 %166, 3
  store i32 %167, ptr %11, align 4
  %168 = load ptr, ptr %9, align 8
  %169 = load i32, ptr @hf_gsm_a_rr_1900_reporting_threshold, align 4
  %170 = load ptr, ptr %5, align 8
  %171 = load i32, ptr %11, align 4
  %172 = call ptr @proto_tree_add_bits_item(ptr noundef %168, i32 noundef %169, ptr noundef %170, i32 noundef %171, i32 noundef 3, i32 noundef 0)
  %173 = load i32, ptr %11, align 4
  %174 = add i32 %173, 3
  store i32 %174, ptr %11, align 4
  br label %175

175:                                              ; preds = %160, %153
  %176 = load ptr, ptr %5, align 8
  %177 = load ptr, ptr %9, align 8
  %178 = load i32, ptr %11, align 4
  %179 = add i32 %178, 1
  store i32 %179, ptr %11, align 4
  %180 = load i32, ptr @hf_gsm_a_rr_850_reporting_present, align 4
  %181 = call zeroext i1 @gsm_rr_csn_flag(ptr noundef %176, ptr noundef %177, i32 noundef %178, i32 noundef %180)
  br i1 %181, label %182, label %197

182:                                              ; preds = %175
  %183 = load ptr, ptr %9, align 8
  %184 = load i32, ptr @hf_gsm_a_rr_850_reporting_offset, align 4
  %185 = load ptr, ptr %5, align 8
  %186 = load i32, ptr %11, align 4
  %187 = call ptr @proto_tree_add_bits_item(ptr noundef %183, i32 noundef %184, ptr noundef %185, i32 noundef %186, i32 noundef 3, i32 noundef 0)
  %188 = load i32, ptr %11, align 4
  %189 = add i32 %188, 3
  store i32 %189, ptr %11, align 4
  %190 = load ptr, ptr %9, align 8
  %191 = load i32, ptr @hf_gsm_a_rr_850_reporting_threshold, align 4
  %192 = load ptr, ptr %5, align 8
  %193 = load i32, ptr %11, align 4
  %194 = call ptr @proto_tree_add_bits_item(ptr noundef %190, i32 noundef %191, ptr noundef %192, i32 noundef %193, i32 noundef 3, i32 noundef 0)
  %195 = load i32, ptr %11, align 4
  %196 = add i32 %195, 3
  store i32 %196, ptr %11, align 4
  br label %197

197:                                              ; preds = %182, %175
  %198 = load ptr, ptr %10, align 8
  %199 = load i32, ptr %11, align 4
  %200 = ashr i32 %199, 3
  %201 = load i32, ptr %7, align 4
  %202 = ashr i32 %201, 3
  %203 = sub i32 %200, %202
  %204 = add i32 %203, 1
  call void @proto_item_set_len(ptr noundef %198, i32 noundef %204)
  %205 = load i32, ptr %11, align 4
  %206 = load i32, ptr %7, align 4
  %207 = sub i32 %205, %206
  call void @llvm.lifetime.end.p0(i64 4, ptr %11) #11
  call void @llvm.lifetime.end.p0(i64 8, ptr %10) #11
  call void @llvm.lifetime.end.p0(i64 8, ptr %9) #11
  ret i32 %207
}