; Function Attrs: null_pointer_is_valid sspstrong uwtable
define internal fastcc i32 @de_rr_meas_param_desc(ptr noundef %0, ptr noundef %1, i32 noundef %2, i32 noundef range(i32 4, 9) %3) unnamed_addr #3 {
  %5 = alloca ptr, align 8
  call void @llvm.lifetime.start.p0(i64 8, ptr nonnull %5) #11
  %6 = ashr i32 %2, 3
  %7 = zext nneg i32 %3 to i64
  %8 = getelementptr [61 x i32], ptr @ett_gsm_rr_rest_octets_elem, i64 0, i64 %7
  %9 = load i32, ptr %8, align 4
  %10 = getelementptr [61 x ptr], ptr @gsm_rr_rest_octets_elem_strings, i64 0, i64 %7
  %11 = load ptr, ptr %10, align 8
  %12 = call ptr @proto_tree_add_subtree(ptr noundef %1, ptr noundef %0, i32 noundef %6, i32 noundef -1, i32 noundef %9, ptr noundef nonnull %5, ptr noundef %11)
  %13 = icmp eq i32 %3, 8
  br i1 %13, label %14, label %24

14:                                               ; preds = %4
  %15 = load i32, ptr @hf_gsm_a_rr_report_type, align 4
  %16 = call ptr @proto_tree_add_bits_item(ptr noundef %12, i32 noundef %15, ptr noundef %0, i32 noundef %2, i32 noundef 1, i32 noundef 0)
  %17 = add i32 %2, 1
  %18 = load i32, ptr @hf_gsm_a_rr_reporting_rate, align 4
  %19 = call ptr @proto_tree_add_bits_item(ptr noundef %12, i32 noundef %18, ptr noundef %0, i32 noundef %17, i32 noundef 1, i32 noundef 0)
  %20 = add i32 %2, 2
  %21 = load i32, ptr @hf_gsm_a_rr_invalid_bsic_reporting, align 4
  %22 = call ptr @proto_tree_add_bits_item(ptr noundef %12, i32 noundef %21, ptr noundef %0, i32 noundef %20, i32 noundef 1, i32 noundef 0)
  %23 = add i32 %2, 3
  %.pre = ashr i32 %23, 3
  br label %24

24:                                               ; preds = %14, %4
  %.pre-phi = phi i32 [ %.pre, %14 ], [ %6, %4 ]
  %.0 = phi i32 [ %23, %14 ], [ %2, %4 ]
  %25 = add i32 %.0, 1
  %26 = load i32, ptr @hf_gsm_a_rr_multiband_reporting_present, align 4
  %27 = and i32 %.0, 7
  %28 = lshr exact i32 128, %27
  %29 = call zeroext i8 @tvb_get_uint8(ptr noundef %0, i32 noundef %.pre-phi)
  %30 = call ptr @proto_tree_add_bits_item(ptr noundef %12, i32 noundef %26, ptr noundef %0, i32 noundef %.0, i32 noundef 1, i32 noundef 0)
  %31 = zext i8 %29 to i32
  %32 = and i32 %28, %31
  %.not = icmp eq i32 %32, 0
  br i1 %.not, label %37, label %33

33:                                               ; preds = %24
  %34 = load i32, ptr @hf_gsm_a_rr_multiband_reporting, align 4
  %35 = call ptr @proto_tree_add_bits_item(ptr noundef %12, i32 noundef %34, ptr noundef %0, i32 noundef %25, i32 noundef 2, i32 noundef 0)
  %36 = add i32 %.0, 3
  br label %37

37:                                               ; preds = %33, %24
  %.1 = phi i32 [ %36, %33 ], [ %25, %24 ]
  %38 = add i32 %.1, 1
  %39 = load i32, ptr @hf_gsm_a_rr_serving_reporting_present, align 4
  %40 = and i32 %.1, 7
  %41 = lshr exact i32 128, %40
  %42 = ashr i32 %.1, 3
  %43 = call zeroext i8 @tvb_get_uint8(ptr noundef %0, i32 noundef %42)
  %44 = call ptr @proto_tree_add_bits_item(ptr noundef %12, i32 noundef %39, ptr noundef %0, i32 noundef %.1, i32 noundef 1, i32 noundef 0)
  %45 = zext i8 %43 to i32
  %46 = and i32 %41, %45
  %.not95 = icmp eq i32 %46, 0
  br i1 %.not95, label %51, label %47

47:                                               ; preds = %37
  %48 = load i32, ptr @hf_gsm_a_rr_serving_band_reporting, align 4
  %49 = call ptr @proto_tree_add_bits_item(ptr noundef %12, i32 noundef %48, ptr noundef %0, i32 noundef %38, i32 noundef 2, i32 noundef 0)
  %50 = add i32 %.1, 3
  br label %51

51:                                               ; preds = %47, %37
  %.2 = phi i32 [ %50, %47 ], [ %38, %37 ]
  %52 = load i32, ptr @hf_gsm_a_rr_scale_ord, align 4
  %53 = call ptr @proto_tree_add_bits_item(ptr noundef %12, i32 noundef %52, ptr noundef %0, i32 noundef %.2, i32 noundef 2, i32 noundef 0)
  %54 = add i32 %.2, 2
  %55 = add i32 %.2, 3
  %56 = load i32, ptr @hf_gsm_a_rr_900_reporting_present, align 4
  %57 = and i32 %54, 7
  %58 = lshr exact i32 128, %57
  %59 = ashr i32 %54, 3
  %60 = call zeroext i8 @tvb_get_uint8(ptr noundef %0, i32 noundef %59)
  %61 = call ptr @proto_tree_add_bits_item(ptr noundef %12, i32 noundef %56, ptr noundef %0, i32 noundef %54, i32 noundef 1, i32 noundef 0)
  %62 = zext i8 %60 to i32
  %63 = and i32 %58, %62
  %.not96 = icmp eq i32 %63, 0
  br i1 %.not96, label %71, label %64

64:                                               ; preds = %51
  %65 = load i32, ptr @hf_gsm_a_rr_900_reporting_offset, align 4
  %66 = call ptr @proto_tree_add_bits_item(ptr noundef %12, i32 noundef %65, ptr noundef %0, i32 noundef %55, i32 noundef 3, i32 noundef 0)
  %67 = add i32 %.2, 6
  %68 = load i32, ptr @hf_gsm_a_rr_900_reporting_threshold, align 4
  %69 = call ptr @proto_tree_add_bits_item(ptr noundef %12, i32 noundef %68, ptr noundef %0, i32 noundef %67, i32 noundef 3, i32 noundef 0)
  %70 = add i32 %.2, 9
  br label %71

71:                                               ; preds = %64, %51
  %.3 = phi i32 [ %70, %64 ], [ %55, %51 ]
  %72 = add i32 %.3, 1
  %73 = load i32, ptr @hf_gsm_a_rr_1800_reporting_present, align 4
  %74 = and i32 %.3, 7
  %75 = lshr exact i32 128, %74
  %76 = ashr i32 %.3, 3
  %77 = call zeroext i8 @tvb_get_uint8(ptr noundef %0, i32 noundef %76)
  %78 = call ptr @proto_tree_add_bits_item(ptr noundef %12, i32 noundef %73, ptr noundef %0, i32 noundef %.3, i32 noundef 1, i32 noundef 0)
  %79 = zext i8 %77 to i32
  %80 = and i32 %75, %79
  %.not97 = icmp eq i32 %80, 0
  br i1 %.not97, label %88, label %81

81:                                               ; preds = %71
  %82 = load i32, ptr @hf_gsm_a_rr_1800_reporting_offset, align 4
  %83 = call ptr @proto_tree_add_bits_item(ptr noundef %12, i32 noundef %82, ptr noundef %0, i32 noundef %72, i32 noundef 3, i32 noundef 0)
  %84 = add i32 %.3, 4
  %85 = load i32, ptr @hf_gsm_a_rr_1800_reporting_threshold, align 4
  %86 = call ptr @proto_tree_add_bits_item(ptr noundef %12, i32 noundef %85, ptr noundef %0, i32 noundef %84, i32 noundef 3, i32 noundef 0)
  %87 = add i32 %.3, 7
  br label %88

88:                                               ; preds = %81, %71
  %.4 = phi i32 [ %87, %81 ], [ %72, %71 ]
  %89 = add i32 %.4, 1
  %90 = load i32, ptr @hf_gsm_a_rr_400_reporting_present, align 4
  %91 = and i32 %.4, 7
  %92 = lshr exact i32 128, %91
  %93 = ashr i32 %.4, 3
  %94 = call zeroext i8 @tvb_get_uint8(ptr noundef %0, i32 noundef %93)
  %95 = call ptr @proto_tree_add_bits_item(ptr noundef %12, i32 noundef %90, ptr noundef %0, i32 noundef %.4, i32 noundef 1, i32 noundef 0)
  %96 = zext i8 %94 to i32
  %97 = and i32 %92, %96
  %.not98 = icmp eq i32 %97, 0
  br i1 %.not98, label %105, label %98

98:                                               ; preds = %88
  %99 = load i32, ptr @hf_gsm_a_rr_400_reporting_offset, align 4
  %100 = call ptr @proto_tree_add_bits_item(ptr noundef %12, i32 noundef %99, ptr noundef %0, i32 noundef %89, i32 noundef 3, i32 noundef 0)
  %101 = add i32 %.4, 4
  %102 = load i32, ptr @hf_gsm_a_rr_400_reporting_threshold, align 4
  %103 = call ptr @proto_tree_add_bits_item(ptr noundef %12, i32 noundef %102, ptr noundef %0, i32 noundef %101, i32 noundef 3, i32 noundef 0)
  %104 = add i32 %.4, 7
  br label %105

105:                                              ; preds = %98, %88
  %.5 = phi i32 [ %104, %98 ], [ %89, %88 ]
  %106 = add i32 %.5, 1
  %107 = load i32, ptr @hf_gsm_a_rr_1900_reporting_present, align 4
  %108 = and i32 %.5, 7
  %109 = lshr exact i32 128, %108
  %110 = ashr i32 %.5, 3
  %111 = call zeroext i8 @tvb_get_uint8(ptr noundef %0, i32 noundef %110)
  %112 = call ptr @proto_tree_add_bits_item(ptr noundef %12, i32 noundef %107, ptr noundef %0, i32 noundef %.5, i32 noundef 1, i32 noundef 0)
  %113 = zext i8 %111 to i32
  %114 = and i32 %109, %113
  %.not99 = icmp eq i32 %114, 0
  br i1 %.not99, label %122, label %115

115:                                              ; preds = %105
  %116 = load i32, ptr @hf_gsm_a_rr_1900_reporting_offset, align 4
  %117 = call ptr @proto_tree_add_bits_item(ptr noundef %12, i32 noundef %116, ptr noundef %0, i32 noundef %106, i32 noundef 3, i32 noundef 0)
  %118 = add i32 %.5, 4
  %119 = load i32, ptr @hf_gsm_a_rr_1900_reporting_threshold, align 4
  %120 = call ptr @proto_tree_add_bits_item(ptr noundef %12, i32 noundef %119, ptr noundef %0, i32 noundef %118, i32 noundef 3, i32 noundef 0)
  %121 = add i32 %.5, 7
  br label %122

122:                                              ; preds = %115, %105
  %.6 = phi i32 [ %121, %115 ], [ %106, %105 ]
  %123 = add i32 %.6, 1
  %124 = load i32, ptr @hf_gsm_a_rr_850_reporting_present, align 4
  %125 = and i32 %.6, 7
  %126 = lshr exact i32 128, %125
  %127 = ashr i32 %.6, 3
  %128 = call zeroext i8 @tvb_get_uint8(ptr noundef %0, i32 noundef %127)
  %129 = call ptr @proto_tree_add_bits_item(ptr noundef %12, i32 noundef %124, ptr noundef %0, i32 noundef %.6, i32 noundef 1, i32 noundef 0)
  %130 = zext i8 %128 to i32
  %131 = and i32 %126, %130
  %.not100 = icmp eq i32 %131, 0
  br i1 %.not100, label %139, label %132

132:                                              ; preds = %122
  %133 = load i32, ptr @hf_gsm_a_rr_850_reporting_offset, align 4
  %134 = call ptr @proto_tree_add_bits_item(ptr noundef %12, i32 noundef %133, ptr noundef %0, i32 noundef %123, i32 noundef 3, i32 noundef 0)
  %135 = add i32 %.6, 4
  %136 = load i32, ptr @hf_gsm_a_rr_850_reporting_threshold, align 4
  %137 = call ptr @proto_tree_add_bits_item(ptr noundef %12, i32 noundef %136, ptr noundef %0, i32 noundef %135, i32 noundef 3, i32 noundef 0)
  %138 = add i32 %.6, 7
  br label %139

139:                                              ; preds = %132, %122
  %.7 = phi i32 [ %138, %132 ], [ %123, %122 ]
  %140 = load ptr, ptr %5, align 8
  %141 = ashr i32 %.7, 3
  %reass.sub = sub nsw i32 %141, %6
  %142 = add nsw i32 %reass.sub, 1
  call void @proto_item_set_len(ptr noundef %140, i32 noundef %142)
  %143 = sub i32 %.7, %2
  call void @llvm.lifetime.end.p0(i64 8, ptr nonnull %5) #11
  ret i32 %143
}